; Function Attrs: nounwind uwtable
define dso_local void @ReorderBufferCommitChild(ptr noundef %0, i32 noundef %1, i32 noundef %2, i64 noundef %3, i64 noundef %4) local_unnamed_addr #0 {
  %6 = alloca i32, align 4
  %7 = alloca i8, align 1
  call void @llvm.lifetime.start.p0(i64 4, ptr nonnull %6)
  store i32 %2, ptr %6, align 4
  call void @llvm.lifetime.start.p0(i64 1, ptr nonnull %7) #19
  %8 = getelementptr inbounds nuw i8, ptr %0, i64 64
  %9 = load i32, ptr %8, align 8
  %.not.i = icmp ne i32 %9, 0
  %10 = icmp eq i32 %9, %2
  %or.cond.i = and i1 %.not.i, %10
  br i1 %or.cond.i, label %11, label %14

11:                                               ; preds = %5
  %12 = getelementptr inbounds nuw i8, ptr %0, i64 72
  %13 = load ptr, ptr %12, align 8
  %.not34.i = icmp eq ptr %13, null
  call void @llvm.lifetime.end.p0(i64 1, ptr nonnull %7) #19
  call void @llvm.lifetime.end.p0(i64 4, ptr nonnull %6)
  br i1 %.not34.i, label %ReorderBufferTXNByXid.exit.thread, label %ReorderBufferTXNByXid.exit.thread11

14:                                               ; preds = %5
  %15 = load ptr, ptr %0, align 8
  %16 = call ptr @hash_search(ptr noundef %15, ptr noundef nonnull %6, i32 noundef 0, ptr noundef nonnull %7) #19
  %17 = load i8, ptr %7, align 1, !range !6, !noundef !7
  %18 = trunc nuw i8 %17 to i1
  br i1 %18, label %ReorderBufferTXNByXid.exit, label %ReorderBufferTXNByXid.exit.thread15

ReorderBufferTXNByXid.exit.thread15:              ; preds = %14
  %19 = load i32, ptr %6, align 4
  store i32 %19, ptr %8, align 8
  %20 = getelementptr inbounds nuw i8, ptr %0, i64 72
  store ptr null, ptr %20, align 8
  call void @llvm.lifetime.end.p0(i64 1, ptr nonnull %7) #19
  call void @llvm.lifetime.end.p0(i64 4, ptr nonnull %6)
  br label %ReorderBufferTXNByXid.exit.thread

ReorderBufferTXNByXid.exit:                       ; preds = %14
  %21 = getelementptr inbounds nuw i8, ptr %16, i64 8
  %22 = load ptr, ptr %21, align 8
  %23 = load i32, ptr %6, align 4
  store i32 %23, ptr %8, align 8
  %24 = getelementptr inbounds nuw i8, ptr %0, i64 72
  store ptr %22, ptr %24, align 8
  call void @llvm.lifetime.end.p0(i64 1, ptr nonnull %7) #19
  call void @llvm.lifetime.end.p0(i64 4, ptr nonnull %6)
  %.not = icmp eq ptr %22, null
  br i1 %.not, label %ReorderBufferTXNByXid.exit.thread, label %ReorderBufferTXNByXid.exit.thread11

ReorderBufferTXNByXid.exit.thread11:              ; preds = %11, %ReorderBufferTXNByXid.exit
  %.0.i14 = phi ptr [ %22, %ReorderBufferTXNByXid.exit ], [ %13, %11 ]
  %25 = getelementptr inbounds nuw i8, ptr %.0.i14, i64 32
  store i64 %3, ptr %25, align 8
  %26 = getelementptr inbounds nuw i8, ptr %.0.i14, i64 40
  store i64 %4, ptr %26, align 8
  call void @ReorderBufferAssignChild(ptr noundef nonnull %0, i32 noundef %1, i32 noundef %2, i64 noundef 0)
  br label %ReorderBufferTXNByXid.exit.thread

ReorderBufferTXNByXid.exit.thread:                ; preds = %11, %ReorderBufferTXNByXid.exit.thread15, %ReorderBufferTXNByXid.exit, %ReorderBufferTXNByXid.exit.thread11
  ret void
}